Certificate:
    Data:
        Version: 3 (0x2)
        Serial Number: 4096 (0x1000)
        Signature Algorithm: md5WithRSAEncryption
        Issuer: C=US, ST=Utah, L=SLC, O=UoU, OU=MSD, CN=haha/emailAddress=chooooxk@gmail.com
        Validity
            Not Before: Mar 31 02:49:44 2024 GMT
            Not After : Mar 31 02:49:44 2025 GMT
        Subject: C=US, ST=Utah, O=UoU, OU=MSD, CN=keke/emailAddress=chooooxk@gmail.com
        Subject Public Key Info:
            Public Key Algorithm: rsaEncryption
                Public-Key: (4096 bit)
                Modulus:
                    00:b6:d8:a8:f4:b9:53:37:14:7a:2b:0d:ad:86:2c:
                    31:65:b8:94:9f:6f:d4:38:7a:8b:4a:05:d8:24:b2:
                    6d:1c:18:dc:65:5a:bb:5e:79:0b:ed:51:95:57:d6:
                    4c:56:22:77:14:19:f1:52:14:df:e3:46:5a:0f:27:
                    7f:56:9e:29:cc:bf:69:98:fa:fd:dc:f4:39:89:24:
                    2c:71:aa:b5:b7:28:f7:2f:08:36:6c:f2:21:d1:73:
                    29:54:cb:af:18:5f:22:63:58:8a:d8:55:37:48:ed:
                    18:16:35:72:32:9c:71:40:42:df:c7:9b:28:df:40:
                    38:f7:60:fa:38:17:14:c2:7d:fc:47:49:5c:e9:27:
                    32:3b:9d:92:ec:c2:e2:6b:94:4e:34:a9:af:90:be:
                    fb:a3:54:99:2f:f8:76:de:11:40:8d:5e:21:e1:02:
                    9d:29:6c:f7:22:95:b9:af:32:6b:b4:33:70:a9:2f:
                    02:e1:85:30:90:d9:27:56:7b:82:33:83:ff:a0:16:
                    00:b1:57:66:7f:b3:3a:b7:85:f9:c3:6d:bf:74:7b:
                    16:a3:94:7b:c3:c6:b6:98:2e:01:7f:b7:5c:d7:6a:
                    a0:06:dd:cf:a9:65:18:a9:26:63:ba:b0:e1:9b:97:
                    7e:a9:d7:0d:9a:1d:90:ac:47:f4:69:f1:44:4f:04:
                    d9:08:2f:87:4a:de:51:e8:5c:ef:ef:ef:f7:f7:0c:
                    53:e8:41:5e:67:ce:82:5f:03:45:3d:a9:03:49:c2:
                    ab:2e:6f:16:85:74:f0:17:53:3c:b5:3c:8c:1a:76:
                    48:54:7a:00:44:52:63:a0:10:c6:04:2f:1e:7a:b3:
                    45:1e:e1:25:e4:a7:2e:d4:0d:b1:8b:50:93:5f:22:
                    b5:87:e0:8d:a1:6d:02:4a:42:c4:75:fa:c3:40:bd:
                    b3:53:98:de:3d:e4:82:b4:aa:d6:9a:d9:93:20:66:
                    b8:0c:49:db:ee:ef:bd:36:8e:81:fe:e8:97:e2:d5:
                    b3:3b:6e:1b:17:5b:02:cf:23:d2:42:ec:c8:c8:a5:
                    0d:ea:f7:8e:ee:b7:f4:d4:5a:0c:41:e3:f0:af:3c:
                    c4:60:25:ec:30:ff:d6:68:00:77:b7:70:3a:e3:18:
                    8e:37:43:39:ff:57:af:ec:f0:1c:8d:48:5b:04:f2:
                    3b:82:9d:4e:b1:7d:df:41:81:03:3b:76:b8:35:66:
                    8a:4d:e2:fb:ec:40:03:16:0b:c6:d4:e2:f9:bd:b9:
                    81:02:62:e5:56:98:77:59:99:07:ee:6c:d0:72:e6:
                    b9:e7:5c:84:73:93:9e:fa:07:9c:c4:3b:36:ad:f3:
                    4c:1a:d5:a4:1a:49:5c:72:de:5f:55:88:4c:6a:09:
                    5d:4f:fd
                Exponent: 65537 (0x10001)
        X509v3 extensions:
            X509v3 Basic Constraints: 
                CA:FALSE
            Netscape Comment: 
                OpenSSL Generated Certificate
            X509v3 Subject Key Identifier: 
                F6:40:12:A9:9D:C2:4D:7D:7F:7D:5E:BA:31:17:4B:1A:26:73:81:7D
            X509v3 Authority Key Identifier: 
                keyid:B8:11:6D:5E:A2:0E:D1:3C:2E:0C:ED:1C:50:98:3C:93:AB:AF:D0:A0
                DirName:/C=US/ST=Utah/L=SLC/O=UoU/OU=MSD/CN=haha/emailAddress=chooooxk@gmail.com
                serial:6D:8A:49:98:27:E0:29:50:A4:B0:43:1D:E3:BC:AA:79:A5:C4:47:07
    Signature Algorithm: md5WithRSAEncryption
    Signature Value:
        89:e6:3d:0a:fa:da:2c:70:1c:2b:3b:28:ea:69:94:d3:7a:74:
        a8:eb:27:47:fb:25:c1:fc:14:b3:c5:1b:82:42:c6:1c:34:91:
        c2:2d:6b:17:e4:17:74:dd:02:9a:00:42:f6:a2:ba:e8:76:2e:
        d8:5a:64:8c:f7:53:0a:19:00:e8:02:81:3d:73:ab:fc:38:75:
        cc:b1:1c:24:c4:a3:62:c6:28:65:ab:48:32:b3:cc:16:f6:99:
        e5:4d:78:b2:ec:f1:d2:dc:53:68:1a:6e:b0:96:9d:a7:d4:40:
        80:11:cf:e6:6f:9f:2d:a6:5e:29:64:3b:ff:e9:7b:6d:b7:bc:
        d0:4b:66:af:46:ee:7a:a7:40:56:d0:09:2f:1e:97:c4:fa:e4:
        22:2b:dc:ab:4f:f3:c2:5e:2c:15:d2:0b:d7:b4:d1:49:b3:19:
        15:7d:ae:50:e4:b6:44:35:e0:a7:2d:3d:ec:b3:27:c6:c2:8e:
        38:f9:bd:6f:6f:05:88:28:e0:99:a7:01:2b:32:d6:a2:0b:19:
        d3:f4:1b:7d:6f:6b:2f:04:9f:bd:e0:3b:5f:19:ae:70:eb:89:
        00:9b:ff:94:39:7e:ae:d3:40:bc:7b:9d:be:05:86:d7:2e:3f:
        39:00:c4:98:50:ca:2b:a1:04:0c:61:ca:70:6c:16:83:2e:0e:
        c6:ce:34:8b:30:8b:af:65:f1:33:23:7d:b2:f4:c7:a3:53:41:
        5f:c5:51:f1:a2:43:fe:cd:a9:38:07:2d:b2:b5:db:92:99:0f:
        aa:b0:18:ee:5b:21:e8:a7:75:e3:ad:72:6a:5f:53:39:9c:56:
        d6:3d:67:af:4f:f9:45:21:f4:69:c3:97:b8:74:13:e1:ae:00:
        b9:f6:fd:b2:8b:1f:f2:c4:18:44:3f:4b:8e:34:2f:2c:18:f9:
        42:90:a2:37:08:23:45:41:43:16:bb:a5:b5:e1:5a:d3:0a:23:
        5a:4a:a1:0c:b0:85:22:e5:f6:83:a6:98:74:e7:ae:ba:97:4f:
        eb:bf:e8:76:59:b1:d3:c9:56:5d:f1:d5:3c:f7:6a:29:87:b1:
        e9:29:53:5f:f6:ab:63:18:d4:31:80:00:7e:e7:80:e4:18:27:
        81:e6:97:82:89:ab:47:60:da:77:2b:af:33:58:c3:0f:10:b3:
        b4:c6:c8:35:a9:77:e3:43:cd:8c:5a:d6:a2:33:7f:4d:d8:fc:
        65:4a:b7:cb:2c:c3:f5:f1:cd:bd:9a:ac:25:f6:ee:2c:10:8c:
        7c:ad:7f:53:c8:92:bf:15:22:8d:26:a0:14:e7:e4:67:70:32:
        dc:8e:8c:2e:76:f0:b8:07:97:8e:7e:33:9e:62:d6:9f:8c:94:
        af:d8:6a:9e:4f:83:aa:24
-----BEGIN CERTIFICATE-----
MIIGdDCCBFygAwIBAgICEAAwDQYJKoZIhvcNAQEEBQAweDELMAkGA1UEBhMCVVMx
DTALBgNVBAgMBFV0YWgxDDAKBgNVBAcMA1NMQzEMMAoGA1UECgwDVW9VMQwwCgYD
VQQLDANNU0QxDTALBgNVBAMMBGhhaGExITAfBgkqhkiG9w0BCQEWEmNob29vb3hr
QGdtYWlsLmNvbTAeFw0yNDAzMzEwMjQ5NDRaFw0yNTAzMzEwMjQ5NDRaMGoxCzAJ
BgNVBAYTAlVTMQ0wCwYDVQQIDARVdGFoMQwwCgYDVQQKDANVb1UxDDAKBgNVBAsM
A01TRDENMAsGA1UEAwwEa2VrZTEhMB8GCSqGSIb3DQEJARYSY2hvb29veGtAZ21h
aWwuY29tMIICIjANBgkqhkiG9w0BAQEFAAOCAg8AMIICCgKCAgEAttio9LlTNxR6
Kw2thiwxZbiUn2/UOHqLSgXYJLJtHBjcZVq7XnkL7VGVV9ZMViJ3FBnxUhTf40Za
Dyd/Vp4pzL9pmPr93PQ5iSQscaq1tyj3Lwg2bPIh0XMpVMuvGF8iY1iK2FU3SO0Y
FjVyMpxxQELfx5so30A492D6OBcUwn38R0lc6ScyO52S7MLia5RONKmvkL77o1SZ
L/h23hFAjV4h4QKdKWz3IpW5rzJrtDNwqS8C4YUwkNknVnuCM4P/oBYAsVdmf7M6
t4X5w22/dHsWo5R7w8a2mC4Bf7dc12qgBt3PqWUYqSZjurDhm5d+qdcNmh2QrEf0
afFETwTZCC+HSt5R6Fzv7+/39wxT6EFeZ86CXwNFPakDScKrLm8WhXTwF1M8tTyM
GnZIVHoARFJjoBDGBC8eerNFHuEl5Kcu1A2xi1CTXyK1h+CNoW0CSkLEdfrDQL2z
U5jePeSCtKrWmtmTIGa4DEnb7u+9No6B/uiX4tWzO24bF1sCzyPSQuzIyKUN6veO
7rf01FoMQePwrzzEYCXsMP/WaAB3t3A64xiON0M5/1ev7PAcjUhbBPI7gp1OsX3f
QYEDO3a4NWaKTeL77EADFgvG1OL5vbmBAmLlVph3WZkH7mzQcua551yEc5Oe+gec
xDs2rfNMGtWkGklcct5fVYhMagldT/0CAwEAAaOCARQwggEQMAkGA1UdEwQCMAAw
LAYJYIZIAYb4QgENBB8WHU9wZW5TU0wgR2VuZXJhdGVkIENlcnRpZmljYXRlMB0G
A1UdDgQWBBT2QBKpncJNfX99XroxF0saJnOBfTCBtQYDVR0jBIGtMIGqgBS4EW1e
og7RPC4M7RxQmDyTq6/QoKF8pHoweDELMAkGA1UEBhMCVVMxDTALBgNVBAgMBFV0
YWgxDDAKBgNVBAcMA1NMQzEMMAoGA1UECgwDVW9VMQwwCgYDVQQLDANNU0QxDTAL
BgNVBAMMBGhhaGExITAfBgkqhkiG9w0BCQEWEmNob29vb3hrQGdtYWlsLmNvbYIU
bYpJmCfgKVCksEMd47yqeaXERwcwDQYJKoZIhvcNAQEEBQADggIBAInmPQr62ixw
HCs7KOpplNN6dKjrJ0f7JcH8FLPFG4JCxhw0kcItaxfkF3TdApoAQvaiuuh2Ltha
ZIz3UwoZAOgCgT1zq/w4dcyxHCTEo2LGKGWrSDKzzBb2meVNeLLs8dLcU2gabrCW
nafUQIARz+Zvny2mXilkO//pe223vNBLZq9G7nqnQFbQCS8el8T65CIr3KtP88Je
LBXSC9e00UmzGRV9rlDktkQ14KctPeyzJ8bCjjj5vW9vBYgo4JmnASsy1qILGdP0
G31vay8En73gO18ZrnDriQCb/5Q5fq7TQLx7nb4FhtcuPzkAxJhQyiuhBAxhynBs
FoMuDsbONIswi69l8TMjfbL0x6NTQV/FUfGiQ/7NqTgHLbK125KZD6qwGO5bIein
deOtcmpfUzmcVtY9Z69P+UUh9GnDl7h0E+GuALn2/bKLH/LEGEQ/S440LywY+UKQ
ojcII0VBQxa7pbXhWtMKI1pKoQywhSLl9oOmmHTnrrqXT+u/6HZZsdPJVl3x1Tz3
aimHsekpU1/2q2MY1DGAAH7ngOQYJ4Hml4KJq0dg2ncrrzNYww8Qs7TGyDWpd+ND
zYxa1qIzf03Y/GVKt8ssw/Xxzb2arCX27iwQjHytf1PIkr8VIo0moBTn5GdwMtyO
jC528LgHl45+M55i1p+MlK/Yap5Pg6ok
-----END CERTIFICATE-----
