Certificate:
    Data:
        Version: 3 (0x2)
        Serial Number: 4097 (0x1001)
        Signature Algorithm: md5WithRSAEncryption
        Issuer: C=US, ST=Utah, L=SLC, O=UoU, OU=MSD, CN=haha/emailAddress=chooooxk@gmail.com
        Validity
            Not Before: Mar 31 02:50:08 2024 GMT
            Not After : Mar 31 02:50:08 2025 GMT
        Subject: C=US, ST=Utah, O=UoU, OU=MSD, CN=fafa/emailAddress=chooooxk@gmail.com
        Subject Public Key Info:
            Public Key Algorithm: rsaEncryption
                Public-Key: (4096 bit)
                Modulus:
                    00:8c:72:33:35:b2:31:27:2e:4a:fb:de:e4:d7:2c:
                    f2:10:4e:8f:d7:45:36:59:2c:a5:50:64:45:e6:30:
                    6e:b1:7f:8f:b1:61:a3:d4:6a:02:01:08:bf:d7:4f:
                    8a:b0:23:7a:93:ea:e8:1b:81:b0:15:a8:9f:28:d5:
                    3a:8d:5a:53:cd:a1:87:8d:d5:a6:b6:5b:30:77:f8:
                    74:a6:fd:7e:a4:25:9a:fe:e5:8e:b1:b5:85:f2:69:
                    99:7b:0c:25:fe:26:8c:15:41:5a:d9:57:c6:20:86:
                    8c:b5:08:f8:1d:b6:56:c5:da:30:e5:7f:93:c9:07:
                    09:87:c5:81:96:fd:4d:e8:01:b8:11:2e:e5:27:71:
                    43:64:3f:b6:9b:29:a3:4a:56:7b:a2:4c:89:76:7c:
                    ac:5e:0a:d9:f1:1e:c8:13:23:94:95:06:90:a9:14:
                    bc:ed:53:47:1d:64:1a:b6:22:2c:65:b0:48:0b:d3:
                    88:1e:f8:ad:cd:90:35:20:74:4f:7b:b8:7e:c8:25:
                    bb:b0:05:e3:e3:41:0a:b8:fb:0f:05:28:17:f2:98:
                    c2:97:7e:0f:44:d1:ef:bc:f4:2a:7a:06:28:04:76:
                    f9:cc:7b:cb:18:9b:6e:77:63:65:ab:44:53:43:14:
                    01:f2:4b:34:e6:73:72:ae:ac:e1:1f:1e:35:f1:3f:
                    a6:ec:aa:6b:89:2d:68:30:a0:82:f0:67:c2:58:2f:
                    8c:4e:44:60:9e:d7:9b:ff:f1:8c:70:ce:1a:12:17:
                    68:13:c6:1e:ab:a5:e5:74:d8:7d:ac:5e:f9:bc:b0:
                    eb:ef:c1:7b:10:29:75:6b:46:9a:18:b5:40:cb:5d:
                    c4:98:a7:8b:72:d4:09:1d:65:34:a6:d4:f8:6e:f5:
                    19:eb:86:af:54:0d:c9:20:3b:b3:84:60:d7:c3:16:
                    bf:9d:8d:ab:62:0e:57:c1:7e:62:a6:c9:34:cd:84:
                    78:00:2c:9b:46:1a:e3:60:d2:53:c0:a1:b2:a5:1e:
                    75:bd:7e:02:7f:a5:d2:d6:97:e7:06:9c:22:91:a4:
                    0e:3e:e8:99:a5:59:de:4b:a1:c4:0a:fb:06:86:33:
                    bc:1d:a0:2d:4d:43:78:9b:c1:1a:57:6a:3a:0c:4a:
                    98:83:e5:d7:e7:74:21:dc:ec:37:af:70:90:33:b6:
                    e7:7d:b9:ab:26:1e:1b:9d:42:55:70:03:0c:1a:06:
                    50:67:5c:c1:65:a7:6a:c8:5f:37:e3:30:a7:20:26:
                    89:55:ea:35:f4:ed:58:da:39:87:e3:cf:96:39:2a:
                    6d:a9:3e:d6:8f:67:c1:d9:12:d1:b6:1b:94:f9:5f:
                    90:0d:bc:3b:94:48:ed:7a:2a:da:ca:93:e2:5c:52:
                    ce:50:b9
                Exponent: 65537 (0x10001)
        X509v3 extensions:
            X509v3 Basic Constraints: 
                CA:FALSE
            Netscape Comment: 
                OpenSSL Generated Certificate
            X509v3 Subject Key Identifier: 
                85:E9:C2:95:0B:22:8E:B4:34:2D:A8:0B:A3:CE:F2:90:88:EF:3A:21
            X509v3 Authority Key Identifier: 
                keyid:B8:11:6D:5E:A2:0E:D1:3C:2E:0C:ED:1C:50:98:3C:93:AB:AF:D0:A0
                DirName:/C=US/ST=Utah/L=SLC/O=UoU/OU=MSD/CN=haha/emailAddress=chooooxk@gmail.com
                serial:6D:8A:49:98:27:E0:29:50:A4:B0:43:1D:E3:BC:AA:79:A5:C4:47:07
    Signature Algorithm: md5WithRSAEncryption
    Signature Value:
        09:88:5e:e2:3c:01:d2:87:b8:10:8b:d9:5d:02:68:96:98:c8:
        4e:35:30:40:4d:5d:21:9b:c7:ed:4e:4e:c6:a8:c8:25:af:0c:
        37:fc:c5:14:f0:d4:7f:2b:03:2b:a8:c5:85:f4:42:96:55:81:
        73:5d:23:29:ac:34:8e:57:c9:9b:c3:c5:ff:5d:c0:d0:8a:84:
        8e:91:2f:35:16:0c:ac:91:d3:07:1b:fd:bd:e3:97:29:d4:76:
        8e:04:34:2c:ce:26:65:3a:ba:ac:ff:80:71:90:79:0a:8a:49:
        61:cc:26:7a:2f:37:d0:40:40:e2:0d:8a:b2:64:68:45:de:26:
        09:8d:a0:30:97:fd:dd:60:91:88:8f:c9:92:8d:b7:07:61:33:
        f3:95:e7:a8:82:27:cd:ee:4b:80:10:02:24:c4:42:9d:8e:63:
        d6:89:39:5b:82:2f:29:46:44:f2:f3:32:9a:f0:42:87:72:08:
        bc:3e:06:e2:70:83:b7:8f:6a:3d:58:f8:ed:84:23:99:1e:9c:
        36:17:d9:7f:7f:27:75:78:86:13:9a:d8:48:cf:2a:7c:87:41:
        d9:26:97:55:e5:3f:8a:ef:0e:36:b9:0a:f7:99:b5:54:06:fc:
        e4:45:c3:47:fb:97:34:c0:09:b9:d8:eb:96:e3:4b:2a:41:30:
        12:cd:23:cf:21:8a:a4:50:52:cc:6b:a7:a2:a8:83:35:b9:6c:
        bb:f6:a6:ac:ea:25:dc:a1:84:42:fc:47:34:0d:79:b7:57:5f:
        49:fc:b0:f5:4a:a7:e5:f3:ac:e4:b3:c7:40:0c:c7:37:93:a2:
        b2:23:c9:58:7d:f2:4b:c6:6b:af:24:d7:5d:94:cb:d6:08:98:
        77:4c:3e:d7:a5:b9:22:5e:9d:7f:17:81:3d:fb:02:86:04:78:
        cc:07:83:9b:f7:36:be:29:a9:d6:99:9d:12:dc:3c:55:21:af:
        7a:1c:60:cf:00:3c:01:54:e9:9a:95:8f:7f:f2:fc:b3:25:12:
        3c:da:98:0d:88:04:1c:a5:fe:33:a7:93:68:7c:d8:55:58:6c:
        72:72:ba:ef:26:e7:82:58:f1:ae:48:27:2d:a2:f6:cb:4b:14:
        28:7d:36:2f:cd:27:6e:a5:33:d4:04:85:5f:9f:a7:cb:6a:1a:
        ee:cf:40:84:b5:cd:d5:72:11:5c:21:8a:9e:ef:d4:08:70:03:
        0c:87:bb:b7:99:7a:9f:0f:98:0e:7b:22:b0:ae:df:82:e2:97:
        9a:14:65:1c:ff:2e:95:b1:63:66:33:e5:6b:da:40:f6:b2:5a:
        0e:27:35:a0:2b:11:dd:02:ab:72:7d:5f:eb:04:3f:b0:58:79:
        4c:75:79:b1:18:c9:fd:82
-----BEGIN CERTIFICATE-----
MIIGdDCCBFygAwIBAgICEAEwDQYJKoZIhvcNAQEEBQAweDELMAkGA1UEBhMCVVMx
DTALBgNVBAgMBFV0YWgxDDAKBgNVBAcMA1NMQzEMMAoGA1UECgwDVW9VMQwwCgYD
VQQLDANNU0QxDTALBgNVBAMMBGhhaGExITAfBgkqhkiG9w0BCQEWEmNob29vb3hr
QGdtYWlsLmNvbTAeFw0yNDAzMzEwMjUwMDhaFw0yNTAzMzEwMjUwMDhaMGoxCzAJ
BgNVBAYTAlVTMQ0wCwYDVQQIDARVdGFoMQwwCgYDVQQKDANVb1UxDDAKBgNVBAsM
A01TRDENMAsGA1UEAwwEZmFmYTEhMB8GCSqGSIb3DQEJARYSY2hvb29veGtAZ21h
aWwuY29tMIICIjANBgkqhkiG9w0BAQEFAAOCAg8AMIICCgKCAgEAjHIzNbIxJy5K
+97k1yzyEE6P10U2WSylUGRF5jBusX+PsWGj1GoCAQi/10+KsCN6k+roG4GwFaif
KNU6jVpTzaGHjdWmtlswd/h0pv1+pCWa/uWOsbWF8mmZewwl/iaMFUFa2VfGIIaM
tQj4HbZWxdow5X+TyQcJh8WBlv1N6AG4ES7lJ3FDZD+2mymjSlZ7okyJdnysXgrZ
8R7IEyOUlQaQqRS87VNHHWQatiIsZbBIC9OIHvitzZA1IHRPe7h+yCW7sAXj40EK
uPsPBSgX8pjCl34PRNHvvPQqegYoBHb5zHvLGJtud2Nlq0RTQxQB8ks05nNyrqzh
Hx418T+m7KpriS1oMKCC8GfCWC+MTkRgnteb//GMcM4aEhdoE8Yeq6XldNh9rF75
vLDr78F7ECl1a0aaGLVAy13EmKeLctQJHWU0ptT4bvUZ64avVA3JIDuzhGDXwxa/
nY2rYg5XwX5ipsk0zYR4ACybRhrjYNJTwKGypR51vX4Cf6XS1pfnBpwikaQOPuiZ
pVneS6HECvsGhjO8HaAtTUN4m8EaV2o6DEqYg+XX53Qh3Ow3r3CQM7bnfbmrJh4b
nUJVcAMMGgZQZ1zBZadqyF834zCnICaJVeo19O1Y2jmH48+WOSptqT7Wj2fB2RLR
thuU+V+QDbw7lEjteiraypPiXFLOULkCAwEAAaOCARQwggEQMAkGA1UdEwQCMAAw
LAYJYIZIAYb4QgENBB8WHU9wZW5TU0wgR2VuZXJhdGVkIENlcnRpZmljYXRlMB0G
A1UdDgQWBBSF6cKVCyKOtDQtqAujzvKQiO86ITCBtQYDVR0jBIGtMIGqgBS4EW1e
og7RPC4M7RxQmDyTq6/QoKF8pHoweDELMAkGA1UEBhMCVVMxDTALBgNVBAgMBFV0
YWgxDDAKBgNVBAcMA1NMQzEMMAoGA1UECgwDVW9VMQwwCgYDVQQLDANNU0QxDTAL
BgNVBAMMBGhhaGExITAfBgkqhkiG9w0BCQEWEmNob29vb3hrQGdtYWlsLmNvbYIU
bYpJmCfgKVCksEMd47yqeaXERwcwDQYJKoZIhvcNAQEEBQADggIBAAmIXuI8AdKH
uBCL2V0CaJaYyE41MEBNXSGbx+1OTsaoyCWvDDf8xRTw1H8rAyuoxYX0QpZVgXNd
IymsNI5XyZvDxf9dwNCKhI6RLzUWDKyR0wcb/b3jlynUdo4ENCzOJmU6uqz/gHGQ
eQqKSWHMJnovN9BAQOINirJkaEXeJgmNoDCX/d1gkYiPyZKNtwdhM/OV56iCJ83u
S4AQAiTEQp2OY9aJOVuCLylGRPLzMprwQodyCLw+BuJwg7ePaj1Y+O2EI5kenDYX
2X9/J3V4hhOa2EjPKnyHQdkml1XlP4rvDja5CveZtVQG/ORFw0f7lzTACbnY65bj
SypBMBLNI88hiqRQUsxrp6KogzW5bLv2pqzqJdyhhEL8RzQNebdXX0n8sPVKp+Xz
rOSzx0AMxzeTorIjyVh98kvGa68k112Uy9YImHdMPteluSJenX8XgT37AoYEeMwH
g5v3Nr4pqdaZnRLcPFUhr3ocYM8APAFU6ZqVj3/y/LMlEjzamA2IBByl/jOnk2h8
2FVYbHJyuu8m54JY8a5IJy2i9stLFCh9Ni/NJ26lM9QEhV+fp8tqGu7PQIS1zdVy
EVwhip7v1AhwAwyHu7eZep8PmA57IrCu34Lil5oUZRz/LpWxY2Yz5WvaQPayWg4n
NaArEd0Cq3J9X+sEP7BYeUx1ebEYyf2C
-----END CERTIFICATE-----
